target datalayout = "e-m:e-p270:32:32-p271:32:32-p272:64:64-i64:64-i128:128-f80:128-n8:16:32:64-S128"
target triple = "x86_64-pc-linux-gnu"

%struct.bufferevent = type { ptr, ptr, %struct.event, %struct.event, ptr, ptr, %struct.event_watermark, %struct.event_watermark, ptr, ptr, ptr, ptr, %struct.timeval, %struct.timeval, i16 }
%struct.event = type { %struct.event_callback, %union.anon.0, i32, i16, i16, ptr, %union.anon.2, %struct.timeval }
%struct.event_callback = type { %struct.anon, i16, i8, i8, %union.anon, ptr }
%struct.anon = type { ptr, ptr }
%union.anon = type { ptr }
%union.anon.0 = type { %struct.anon.1 }
%struct.anon.1 = type { ptr, ptr }
%union.anon.2 = type { %struct.anon.3 }
%struct.anon.3 = type { %struct.anon.4, %struct.timeval }
%struct.anon.4 = type { ptr, ptr }
%struct.event_watermark = type { i64, i64 }
%struct.timeval = type { i64, i64 }
%struct.bufferevent_filtered = type { %struct.bufferevent_private, ptr, ptr, ptr, i32, ptr, ptr, ptr, ptr }
%struct.bufferevent_private = type { %struct.bufferevent, ptr, i8, i16, i16, i16, i32, i32, %struct.event_callback, i32, i32, ptr, i64, i64, ptr, %union.anon.7, ptr }
%union.anon.7 = type { %struct.sockaddr_in6 }
%struct.sockaddr_in6 = type { i16, i16, i32, %struct.in6_addr, i32 }
%struct.in6_addr = type { %union.anon.8 }
%union.anon.8 = type { [4 x i32] }

; Function Attrs: nounwind uwtable
define internal i32 @be_readbuf_full(ptr noundef %0, i32 noundef %1) #0 {
  %3 = alloca ptr, align 8
  %4 = alloca i32, align 4
  %5 = alloca ptr, align 8
  store ptr %0, ptr %3, align 8
  store i32 %1, ptr %4, align 4
  call void @llvm.lifetime.start.p0(i64 8, ptr %5) #4
  %6 = load ptr, ptr %3, align 8
  %7 = getelementptr inbounds nuw %struct.bufferevent_filtered, ptr %6, i32 0, i32 0
  %8 = getelementptr inbounds nuw %struct.bufferevent_private, ptr %7, i32 0, i32 0
  store ptr %8, ptr %5, align 8
  %9 = load i32, ptr %4, align 4
  %10 = icmp eq i32 %9, 0
  br i1 %10, label %11, label %27

11:                                               ; preds = %2
  %12 = load ptr, ptr %5, align 8
  %13 = getelementptr inbounds nuw %struct.bufferevent, ptr %12, i32 0, i32 6
  %14 = getelementptr inbounds nuw %struct.event_watermark, ptr %13, i32 0, i32 1
  %15 = load i64, ptr %14, align 8
  %16 = icmp ne i64 %15, 0
  br i1 %16, label %17, label %27

17:                                               ; preds = %11
  %18 = load ptr, ptr %5, align 8
  %19 = getelementptr inbounds nuw %struct.bufferevent, ptr %18, i32 0, i32 4
  %20 = load ptr, ptr %19, align 8
  %21 = call i64 @evbuffer_get_length(ptr noundef %20)
  %22 = load ptr, ptr %5, align 8
  %23 = getelementptr inbounds nuw %struct.bufferevent, ptr %22, i32 0, i32 6
  %24 = getelementptr inbounds nuw %struct.event_watermark, ptr %23, i32 0, i32 1
  %25 = load i64, ptr %24, align 8
  %26 = icmp uge i64 %21, %25
  br label %27

27:                                               ; preds = %17, %11, %2
  %28 = phi i1 [ false, %11 ], [ false, %2 ], [ %26, %17 ]
  %29 = zext i1 %28 to i32
  call void @llvm.lifetime.end.p0(i64 8, ptr %5) #4
  ret i32 %29
}

; Function Attrs: inlinehint nounwind uwtable
define internal void @bufferevent_trigger_nolock_(ptr noundef %0, i16 noundef signext %1, i32 noundef %2) #3 {
  %4 = alloca ptr, align 8
  %5 = alloca i16, align 2
  %6 = alloca i32, align 4
  store ptr %0, ptr %4, align 8
  store i16 %1, ptr %5, align 2
  store i32 %2, ptr %6, align 4
  %7 = load i16, ptr %5, align 2
  %8 = sext i16 %7 to i32
  %9 = and i32 %8, 2
  %10 = icmp ne i32 %9, 0
  br i1 %10, label %11, label %28

11:                                               ; preds = %3
  %12 = load i32, ptr %6, align 4
  %13 = and i32 %12, 65536
  %14 = icmp ne i32 %13, 0
  br i1 %14, label %25, label %15

15:                                               ; preds = %11
  %16 = load ptr, ptr %4, align 8
  %17 = getelementptr inbounds nuw %struct.bufferevent, ptr %16, i32 0, i32 4
  %18 = load ptr, ptr %17, align 8
  %19 = call i64 @evbuffer_get_length(ptr noundef %18)
  %20 = load ptr, ptr %4, align 8
  %21 = getelementptr inbounds nuw %struct.bufferevent, ptr %20, i32 0, i32 6
  %22 = getelementptr inbounds nuw %struct.event_watermark, ptr %21, i32 0, i32 0
  %23 = load i64, ptr %22, align 8
  %24 = icmp uge i64 %19, %23
  br i1 %24, label %25, label %28

25:                                               ; preds = %15, %11
  %26 = load ptr, ptr %4, align 8
  %27 = load i32, ptr %6, align 4
  call void @bufferevent_run_readcb_(ptr noundef %26, i32 noundef %27)
  br label %28

28:                                               ; preds = %25, %15, %3
  %29 = load i16, ptr %5, align 2
  %30 = sext i16 %29 to i32
  %31 = and i32 %30, 4
  %32 = icmp ne i32 %31, 0
  br i1 %32, label %33, label %50

33:                                               ; preds = %28
  %34 = load i32, ptr %6, align 4
  %35 = and i32 %34, 65536
  %36 = icmp ne i32 %35, 0
  br i1 %36, label %47, label %37

37:                                               ; preds = %33
  %38 = load ptr, ptr %4, align 8
  %39 = getelementptr inbounds nuw %struct.bufferevent, ptr %38, i32 0, i32 5
  %40 = load ptr, ptr %39, align 8
  %41 = call i64 @evbuffer_get_length(ptr noundef %40)
  %42 = load ptr, ptr %4, align 8
  %43 = getelementptr inbounds nuw %struct.bufferevent, ptr %42, i32 0, i32 7
  %44 = getelementptr inbounds nuw %struct.event_watermark, ptr %43, i32 0, i32 0
  %45 = load i64, ptr %44, align 8
  %46 = icmp ule i64 %41, %45
  br i1 %46, label %47, label %50

47:                                               ; preds = %37, %33
  %48 = load ptr, ptr %4, align 8
  %49 = load i32, ptr %6, align 4
  call void @bufferevent_run_writecb_(ptr noundef %48, i32 noundef %49)
  br label %50

50:                                               ; preds = %47, %37, %28
  ret void
}

; Function Attrs: nounwind uwtable
define internal void @be_filter_read_nolock_(ptr noundef %0, ptr noundef %1) #0 {
  %3 = alloca ptr, align 8
  %4 = alloca ptr, align 8
  %5 = alloca ptr, align 8
  %6 = alloca i32, align 4
  %7 = alloca i32, align 4
  %8 = alloca ptr, align 8
  %9 = alloca ptr, align 8
  %10 = alloca i32, align 4
  store ptr %0, ptr %3, align 8
  store ptr %1, ptr %4, align 8
  call void @llvm.lifetime.start.p0(i64 8, ptr %5) #4
  %11 = load ptr, ptr %4, align 8
  store ptr %11, ptr %5, align 8
  call void @llvm.lifetime.start.p0(i64 4, ptr %6) #4
  call void @llvm.lifetime.start.p0(i64 4, ptr %7) #4
  call void @llvm.lifetime.start.p0(i64 8, ptr %8) #4
  %12 = load ptr, ptr %5, align 8
  %13 = getelementptr inbounds nuw %struct.bufferevent_filtered, ptr %12, i32 0, i32 0
  %14 = getelementptr inbounds nuw %struct.bufferevent_private, ptr %13, i32 0, i32 0
  store ptr %14, ptr %8, align 8
  call void @llvm.lifetime.start.p0(i64 8, ptr %9) #4
  %15 = load ptr, ptr %8, align 8
  %16 = getelementptr inbounds i8, ptr %15, i64 0
  store ptr %16, ptr %9, align 8
  call void @llvm.lifetime.start.p0(i64 4, ptr %10) #4
  store i32 0, ptr %10, align 4
  br label %17

17:                                               ; preds = %2
  br label %18

18:                                               ; preds = %17
  br label %19

19:                                               ; preds = %18
  %20 = load ptr, ptr %9, align 8
  %21 = getelementptr inbounds nuw %struct.bufferevent_private, ptr %20, i32 0, i32 10
  %22 = load i32, ptr %21, align 4
  %23 = icmp sgt i32 %22, 0
  br i1 %23, label %24, label %59

24:                                               ; preds = %19
  %25 = load ptr, ptr %5, align 8
  %26 = getelementptr inbounds nuw %struct.bufferevent_filtered, ptr %25, i32 0, i32 4
  %27 = load i32, ptr %26, align 8
  %28 = icmp ne i32 %27, 0
  br i1 %28, label %29, label %30

29:                                               ; preds = %24
  store i32 2, ptr %7, align 4
  br label %31

30:                                               ; preds = %24
  store i32 0, ptr %7, align 4
  br label %31

31:                                               ; preds = %30, %29
  %32 = load ptr, ptr %5, align 8
  %33 = load i32, ptr %7, align 4
  %34 = call i32 @be_filter_process_input(ptr noundef %32, i32 noundef %33, ptr noundef %10)
  store i32 %34, ptr %6, align 4
  %35 = load i32, ptr %10, align 4
  %36 = icmp ne i32 %35, 0
  br i1 %36, label %37, label %58

37:                                               ; preds = %31
  %38 = load ptr, ptr %8, align 8
  call void @bufferevent_trigger_nolock_(ptr noundef %38, i16 noundef signext 2, i32 noundef 0)
  %39 = load ptr, ptr %3, align 8
  %40 = getelementptr inbounds nuw %struct.bufferevent, ptr %39, i32 0, i32 4
  %41 = load ptr, ptr %40, align 8
  %42 = call i64 @evbuffer_get_length(ptr noundef %41)
  %43 = icmp ugt i64 %42, 0
  br i1 %43, label %44, label %57

44:                                               ; preds = %37
  %45 = load ptr, ptr %5, align 8
  %46 = load i32, ptr %7, align 4
  %47 = call i32 @be_readbuf_full(ptr noundef %45, i32 noundef %46)
  %48 = icmp ne i32 %47, 0
  br i1 %48, label %49, label %57

49:                                               ; preds = %44
  %50 = load ptr, ptr %8, align 8
  %51 = getelementptr inbounds nuw %struct.bufferevent, ptr %50, i32 0, i32 4
  %52 = load ptr, ptr %51, align 8
  %53 = load ptr, ptr %5, align 8
  %54 = getelementptr inbounds nuw %struct.bufferevent_filtered, ptr %53, i32 0, i32 2
  %55 = load ptr, ptr %54, align 8
  %56 = call i32 @evbuffer_cb_set_flags(ptr noundef %52, ptr noundef %55, i32 noundef 1)
  br label %57

57:                                               ; preds = %49, %44, %37
  br label %58

58:                                               ; preds = %57, %31
  br label %59

59:                                               ; preds = %58, %19
  call void @llvm.lifetime.end.p0(i64 4, ptr %10) #4
  call void @llvm.lifetime.end.p0(i64 8, ptr %9) #4
  call void @llvm.lifetime.end.p0(i64 8, ptr %8) #4
  call void @llvm.lifetime.end.p0(i64 4, ptr %7) #4
  call void @llvm.lifetime.end.p0(i64 4, ptr %6) #4
  call void @llvm.lifetime.end.p0(i64 8, ptr %5) #4
  ret void
}