; Function Attrs: nounwind uwtable
define internal fastcc void @be_filter_read_nolock_(ptr noundef readonly captures(none) %0, ptr noundef %1) unnamed_addr #0 {
  %3 = alloca i32, align 4
  call void @llvm.lifetime.start.p0(i64 4, ptr nonnull %3) #3
  store i32 0, ptr %3, align 4
  %4 = getelementptr inbounds nuw i8, ptr %1, i64 444
  %5 = load i32, ptr %4, align 4
  %6 = icmp sgt i32 %5, 0
  br i1 %6, label %7, label %be_filter_process_input.exit.thread

7:                                                ; preds = %2
  %8 = getelementptr inbounds nuw i8, ptr %1, i64 544
  %9 = load i32, ptr %8, align 8
  %.not = icmp eq i32 %9, 0
  br i1 %.not, label %be_filter_process_input.exit, label %.split13

.split13:                                         ; preds = %7
  %10 = getelementptr inbounds nuw i8, ptr %1, i64 256
  %11 = getelementptr inbounds nuw i8, ptr %1, i64 560
  %12 = getelementptr inbounds nuw i8, ptr %1, i64 520
  %13 = getelementptr inbounds nuw i8, ptr %1, i64 576
  %14 = getelementptr inbounds nuw i8, ptr %1, i64 368
  %15 = load ptr, ptr %11, align 8
  %16 = load ptr, ptr %12, align 8
  %17 = getelementptr inbounds nuw i8, ptr %16, i64 256
  %18 = load ptr, ptr %17, align 8
  %19 = load ptr, ptr %10, align 8
  %20 = load ptr, ptr %13, align 8
  %21 = tail call i32 %15(ptr noundef %18, ptr noundef %19, i64 noundef -1, i32 noundef 2, ptr noundef %20) #3
  %.not24 = icmp eq i32 %21, 0
  br i1 %.not24, label %.lr.ph.i, label %be_filter_process_input.exit.thread

22:                                               ; preds = %.critedge46.i
  %23 = load ptr, ptr %11, align 8
  %24 = load ptr, ptr %12, align 8
  %25 = getelementptr inbounds nuw i8, ptr %24, i64 256
  %26 = load ptr, ptr %25, align 8
  %27 = load ptr, ptr %10, align 8
  %28 = load ptr, ptr %13, align 8
  %29 = tail call i32 %23(ptr noundef %26, ptr noundef %27, i64 noundef -1, i32 noundef 2, ptr noundef %28) #3
  %30 = icmp eq i32 %29, 0
  br i1 %30, label %.lr.ph.i, label %.critedge.thread.i, !llvm.loop !6

.lr.ph.i:                                         ; preds = %.split13, %22
  %31 = load i16, ptr %14, align 8
  %32 = and i16 %31, 2
  %.not33.i = icmp eq i16 %32, 0
  br i1 %.not33.i, label %.critedge.thread.i, label %.critedge46.i

.critedge46.i:                                    ; preds = %.lr.ph.i
  %33 = load ptr, ptr %12, align 8
  %34 = getelementptr inbounds nuw i8, ptr %33, i64 256
  %35 = load ptr, ptr %34, align 8
  %36 = tail call i64 @evbuffer_get_length(ptr noundef %35) #3
  %.not34.i = icmp eq i64 %36, 0
  br i1 %.not34.i, label %.critedge.thread.i, label %22

.critedge.thread.i:                               ; preds = %.lr.ph.i, %22, %.critedge46.i
  %37 = getelementptr inbounds nuw i8, ptr %1, i64 336
  %38 = load i64, ptr %37, align 8
  %.not37.i = icmp eq i64 %38, 0
  br i1 %.not37.i, label %39, label %42

39:                                               ; preds = %.critedge.thread.i
  %40 = getelementptr inbounds nuw i8, ptr %1, i64 344
  %41 = load i64, ptr %40, align 8
  %.not38.i = icmp eq i64 %41, 0
  br i1 %.not38.i, label %be_filter_process_input.exit.thread26, label %42

42:                                               ; preds = %39, %.critedge.thread.i
  %43 = getelementptr inbounds nuw i8, ptr %1, i64 16
  %44 = tail call i32 @event_add(ptr noundef nonnull %43, ptr noundef nonnull %37) #3
  br label %be_filter_process_input.exit.thread26

be_filter_process_input.exit:                     ; preds = %7
  call fastcc void @be_filter_process_input(ptr noundef nonnull %1, i32 noundef 0, ptr noundef %3)
  %.pr.pre = load i32, ptr %3, align 4
  %.not14 = icmp eq i32 %.pr.pre, 0
  br i1 %.not14, label %be_filter_process_input.exit.thread, label %be_filter_process_input.exit.thread26

be_filter_process_input.exit.thread26:            ; preds = %39, %42, %be_filter_process_input.exit
  %45 = getelementptr inbounds nuw i8, ptr %1, i64 256
  %46 = load ptr, ptr %45, align 8
  %47 = tail call i64 @evbuffer_get_length(ptr noundef %46) #3
  %48 = getelementptr inbounds nuw i8, ptr %1, i64 272
  %49 = load i64, ptr %48, align 8
  %.not11.i = icmp ult i64 %47, %49
  br i1 %.not11.i, label %bufferevent_trigger_nolock_.exit, label %50

50:                                               ; preds = %be_filter_process_input.exit.thread26
  tail call void @bufferevent_run_readcb_(ptr noundef nonnull %1, i32 noundef 0) #3
  br label %bufferevent_trigger_nolock_.exit

bufferevent_trigger_nolock_.exit:                 ; preds = %be_filter_process_input.exit.thread26, %50
  %51 = getelementptr inbounds nuw i8, ptr %0, i64 256
  %52 = load ptr, ptr %51, align 8
  %53 = tail call i64 @evbuffer_get_length(ptr noundef %52) #3
  %.not15 = icmp ne i64 %53, 0
  %or.cond = and i1 %.not, %.not15
  br i1 %or.cond, label %54, label %be_filter_process_input.exit.thread

54:                                               ; preds = %bufferevent_trigger_nolock_.exit
  %55 = getelementptr inbounds nuw i8, ptr %1, i64 280
  %56 = load i64, ptr %55, align 8
  %.not.i = icmp eq i64 %56, 0
  br i1 %.not.i, label %be_filter_process_input.exit.thread, label %be_readbuf_full.exit

be_readbuf_full.exit:                             ; preds = %54
  %57 = load ptr, ptr %45, align 8
  %58 = tail call i64 @evbuffer_get_length(ptr noundef %57) #3
  %59 = load i64, ptr %55, align 8
  %.not20 = icmp ult i64 %58, %59
  br i1 %.not20, label %be_filter_process_input.exit.thread, label %60

60:                                               ; preds = %be_readbuf_full.exit
  %61 = load ptr, ptr %45, align 8
  %62 = getelementptr inbounds nuw i8, ptr %1, i64 528
  %63 = load ptr, ptr %62, align 8
  %64 = tail call i32 @evbuffer_cb_set_flags(ptr noundef %61, ptr noundef %63, i32 noundef 1) #3
  br label %be_filter_process_input.exit.thread

be_filter_process_input.exit.thread:              ; preds = %.split13, %54, %be_filter_process_input.exit, %60, %be_readbuf_full.exit, %bufferevent_trigger_nolock_.exit, %2
  call void @llvm.lifetime.end.p0(i64 4, ptr nonnull %3) #3
  ret void
}